target datalayout = "e-m:e-p270:32:32-p271:32:32-p272:64:64-i64:64-i128:128-f80:128-n8:16:32:64-S128"
target triple = "x86_64-pc-linux-gnu"

%struct.gguf_context = type { i32, %"class.std::vector", %"class.std::vector.17", i64, i64, i64, ptr }
%"class.std::vector" = type { %"struct.std::_Vector_base" }
%"struct.std::_Vector_base" = type { %"struct.std::_Vector_base<gguf_kv, std::allocator<gguf_kv>>::_Vector_impl" }
%"struct.std::_Vector_base<gguf_kv, std::allocator<gguf_kv>>::_Vector_impl" = type { %"struct.std::_Vector_base<gguf_kv, std::allocator<gguf_kv>>::_Vector_impl_data" }
%"struct.std::_Vector_base<gguf_kv, std::allocator<gguf_kv>>::_Vector_impl_data" = type { ptr, ptr, ptr }
%"class.std::vector.17" = type { %"struct.std::_Vector_base.18" }
%"struct.std::_Vector_base.18" = type { %"struct.std::_Vector_base<gguf_tensor_info, std::allocator<gguf_tensor_info>>::_Vector_impl" }
%"struct.std::_Vector_base<gguf_tensor_info, std::allocator<gguf_tensor_info>>::_Vector_impl" = type { %"struct.std::_Vector_base<gguf_tensor_info, std::allocator<gguf_tensor_info>>::_Vector_impl_data" }
%"struct.std::_Vector_base<gguf_tensor_info, std::allocator<gguf_tensor_info>>::_Vector_impl_data" = type { ptr, ptr, ptr }
%struct.gguf_tensor_info = type { %struct.ggml_tensor, i64 }
%struct.ggml_tensor = type { i32, ptr, [4 x i64], [4 x i64], i32, [16 x i32], i32, [10 x ptr], ptr, i64, ptr, [64 x i8], ptr, [8 x i8] }

@.str.28 = private unnamed_addr constant [115 x i8] c"generated/home/dtcxzyw/WorkSpace/Projects/compilers/llvm-opt-benchmark/bench/llama.cpp/llama.cpp/ggml/src/gguf.cpp\00", align 1
@.str.29 = private unnamed_addr constant [23 x i8] c"GGML_ASSERT(%s) failed\00", align 1
@.str.59 = private unnamed_addr constant [54 x i8] c"tensor_id >= 0 && tensor_id < gguf_get_n_tensors(ctx)\00", align 1

; Function Attrs: mustprogress nounwind uwtable
define linkonce_odr noundef nonnull align 8 dereferenceable(344) ptr @_ZNKSt6vectorI16gguf_tensor_infoSaIS0_EEixEm(ptr noundef nonnull align 8 dereferenceable(24) %0, i64 noundef %1) #3 comdat align 2 {
  %3 = alloca ptr, align 8
  %4 = alloca i64, align 8
  store ptr %0, ptr %3, align 8, !tbaa !127
  store i64 %1, ptr %4, align 8, !tbaa !69
  %5 = load ptr, ptr %3, align 8
  %6 = getelementptr inbounds nuw %"struct.std::_Vector_base.18", ptr %5, i32 0, i32 0
  %7 = getelementptr inbounds nuw %"struct.std::_Vector_base<gguf_tensor_info, std::allocator<gguf_tensor_info>>::_Vector_impl_data", ptr %6, i32 0, i32 0
  %8 = load ptr, ptr %7, align 8, !tbaa !129
  %9 = load i64, ptr %4, align 8, !tbaa !69
  %10 = getelementptr inbounds nuw %struct.gguf_tensor_info, ptr %8, i64 %9
  ret ptr %10
}

; Function Attrs: mustprogress nounwind uwtable
define linkonce_odr noundef i64 @_ZNKSt6vectorI16gguf_tensor_infoSaIS0_EE4sizeEv(ptr noundef nonnull align 8 dereferenceable(24) %0) #3 comdat align 2 {
  %2 = alloca ptr, align 8
  store ptr %0, ptr %2, align 8, !tbaa !127
  %3 = load ptr, ptr %2, align 8
  %4 = getelementptr inbounds nuw %"struct.std::_Vector_base.18", ptr %3, i32 0, i32 0
  %5 = getelementptr inbounds nuw %"struct.std::_Vector_base<gguf_tensor_info, std::allocator<gguf_tensor_info>>::_Vector_impl_data", ptr %4, i32 0, i32 1
  %6 = load ptr, ptr %5, align 8, !tbaa !131
  %7 = getelementptr inbounds nuw %"struct.std::_Vector_base.18", ptr %3, i32 0, i32 0
  %8 = getelementptr inbounds nuw %"struct.std::_Vector_base<gguf_tensor_info, std::allocator<gguf_tensor_info>>::_Vector_impl_data", ptr %7, i32 0, i32 0
  %9 = load ptr, ptr %8, align 8, !tbaa !129
  %10 = ptrtoint ptr %6 to i64
  %11 = ptrtoint ptr %9 to i64
  %12 = sub i64 %10, %11
  %13 = sdiv exact i64 %12, 344
  ret i64 %13
}

; Function Attrs: mustprogress uwtable
define ptr @gguf_get_tensor_name(ptr noundef %0, i64 noundef %1) #4 {
  %3 = alloca ptr, align 8
  %4 = alloca i64, align 8
  store ptr %0, ptr %3, align 8, !tbaa !41
  store i64 %1, ptr %4, align 8, !tbaa !69
  %5 = load i64, ptr %4, align 8, !tbaa !69
  %6 = icmp sge i64 %5, 0
  br i1 %6, label %7, label %12

7:                                                ; preds = %2
  %8 = load i64, ptr %4, align 8, !tbaa !69
  %9 = load ptr, ptr %3, align 8, !tbaa !41
  %10 = call i64 @gguf_get_n_tensors(ptr noundef %9)
  %11 = icmp slt i64 %8, %10
  br i1 %11, label %13, label %12

12:                                               ; preds = %7, %2
  call void (ptr, i32, ptr, ...) @ggml_abort(ptr noundef @.str.28, i32 noundef 907, ptr noundef @.str.29, ptr noundef @.str.59) #21
  unreachable

13:                                               ; preds = %7
  %14 = load ptr, ptr %3, align 8, !tbaa !41
  %15 = getelementptr inbounds nuw %struct.gguf_context, ptr %14, i32 0, i32 2
  %16 = load i64, ptr %4, align 8, !tbaa !69
  %17 = call noundef nonnull align 8 dereferenceable(344) ptr @_ZNKSt6vectorI16gguf_tensor_infoSaIS0_EEixEm(ptr noundef nonnull align 8 dereferenceable(24) %15, i64 noundef %16) #5
  %18 = getelementptr inbounds nuw %struct.gguf_tensor_info, ptr %17, i32 0, i32 0
  %19 = getelementptr inbounds nuw %struct.ggml_tensor, ptr %18, i32 0, i32 11
  %20 = getelementptr inbounds [64 x i8], ptr %19, i64 0, i64 0
  ret ptr %20
}

; Function Attrs: mustprogress nounwind uwtable
define i64 @gguf_get_n_tensors(ptr noundef %0) #3 {
  %2 = alloca ptr, align 8
  store ptr %0, ptr %2, align 8, !tbaa !41
  %3 = load ptr, ptr %2, align 8, !tbaa !41
  %4 = getelementptr inbounds nuw %struct.gguf_context, ptr %3, i32 0, i32 2
  %5 = call noundef i64 @_ZNKSt6vectorI16gguf_tensor_infoSaIS0_EE4sizeEv(ptr noundef nonnull align 8 dereferenceable(24) %4) #5
  ret i64 %5
}

; Function Attrs: mustprogress uwtable
define i64 @gguf_find_tensor(ptr noundef %0, ptr noundef %1) #4 {
  %3 = alloca ptr, align 8
  %4 = alloca ptr, align 8
  %5 = alloca i64, align 8
  %6 = alloca i64, align 8
  %7 = alloca i64, align 8
  %8 = alloca i32, align 4
  store ptr %0, ptr %3, align 8, !tbaa !41
  store ptr %1, ptr %4, align 8, !tbaa !122
  call void @llvm.lifetime.start.p0(i64 8, ptr %5) #5
  store i64 -1, ptr %5, align 8, !tbaa !69
  call void @llvm.lifetime.start.p0(i64 8, ptr %6) #5
  %9 = load ptr, ptr %3, align 8, !tbaa !41
  %10 = call i64 @gguf_get_n_tensors(ptr noundef %9)
  store i64 %10, ptr %6, align 8, !tbaa !69
  call void @llvm.lifetime.start.p0(i64 8, ptr %7) #5
  store i64 0, ptr %7, align 8, !tbaa !69
  br label %11

11:                                               ; preds = %26, %2
  %12 = load i64, ptr %7, align 8, !tbaa !69
  %13 = load i64, ptr %6, align 8, !tbaa !69
  %14 = icmp slt i64 %12, %13
  br i1 %14, label %16, label %15

15:                                               ; preds = %11
  store i32 2, ptr %8, align 4
  br label %29

16:                                               ; preds = %11
  %17 = load ptr, ptr %4, align 8, !tbaa !122
  %18 = load ptr, ptr %3, align 8, !tbaa !41
  %19 = load i64, ptr %7, align 8, !tbaa !69
  %20 = call ptr @gguf_get_tensor_name(ptr noundef %18, i64 noundef %19)
  %21 = call i32 @strcmp(ptr noundef %17, ptr noundef %20) #22
  %22 = icmp eq i32 %21, 0
  br i1 %22, label %23, label %25

23:                                               ; preds = %16
  %24 = load i64, ptr %7, align 8, !tbaa !69
  store i64 %24, ptr %5, align 8, !tbaa !69
  store i32 2, ptr %8, align 4
  br label %29

25:                                               ; preds = %16
  br label %26

26:                                               ; preds = %25
  %27 = load i64, ptr %7, align 8, !tbaa !69
  %28 = add nsw i64 %27, 1
  store i64 %28, ptr %7, align 8, !tbaa !69
  br label %11, !llvm.loop !167

29:                                               ; preds = %23, %15
  call void @llvm.lifetime.end.p0(i64 8, ptr %7) #5
  br label %30

30:                                               ; preds = %29
  %31 = load i64, ptr %5, align 8, !tbaa !69
  store i32 1, ptr %8, align 4
  call void @llvm.lifetime.end.p0(i64 8, ptr %6) #5
  call void @llvm.lifetime.end.p0(i64 8, ptr %5) #5
  ret i64 %31
}