; Function Attrs: mustprogress nofree nounwind willreturn memory(read, inaccessiblemem: none) uwtable
define range(i64 -1, 9223372036854775807) i64 @gguf_find_tensor(ptr noundef readonly captures(none) %0, ptr noundef readonly captures(none) %1) local_unnamed_addr #10 {
  %3 = getelementptr inbounds nuw i8, ptr %0, i64 32
  %4 = getelementptr inbounds nuw i8, ptr %0, i64 40
  %5 = load ptr, ptr %4, align 8, !tbaa !75
  %6 = load ptr, ptr %3, align 8, !tbaa !46
  %7 = ptrtoint ptr %5 to i64
  %8 = ptrtoint ptr %6 to i64
  %9 = sub i64 %7, %8
  %10 = icmp sgt i64 %9, 0
  br i1 %10, label %gguf_get_tensor_name.exit.preheader, label %gguf_get_tensor_name.exit._crit_edge

gguf_get_tensor_name.exit.preheader:              ; preds = %2
  %11 = udiv exact i64 %9, 344
  %12 = tail call i64 @llvm.umax.i64(i64 %11, i64 1)
  br label %gguf_get_tensor_name.exit

gguf_get_tensor_name.exit:                        ; preds = %gguf_get_tensor_name.exit.preheader, %16
  %.09 = phi i64 [ %17, %16 ], [ 0, %gguf_get_tensor_name.exit.preheader ]
  %13 = getelementptr inbounds nuw %struct.gguf_tensor_info, ptr %6, i64 %.09, i32 0, i32 11
  %14 = tail call i32 @strcmp(ptr noundef nonnull dereferenceable(1) %1, ptr noundef nonnull dereferenceable(1) %13) #27
  %15 = icmp eq i32 %14, 0
  br i1 %15, label %gguf_get_tensor_name.exit._crit_edge, label %16

16:                                               ; preds = %gguf_get_tensor_name.exit
  %17 = add nuw nsw i64 %.09, 1
  %exitcond.not = icmp eq i64 %17, %12
  br i1 %exitcond.not, label %gguf_get_tensor_name.exit._crit_edge, label %gguf_get_tensor_name.exit, !llvm.loop !180

gguf_get_tensor_name.exit._crit_edge:             ; preds = %16, %gguf_get_tensor_name.exit, %2
  %.08 = phi i64 [ -1, %2 ], [ %.09, %gguf_get_tensor_name.exit ], [ -1, %16 ]
  ret i64 %.08
}